target datalayout = "e-m:e-p270:32:32-p271:32:32-p272:64:64-i64:64-i128:128-f80:128-n8:16:32:64-S128"
target triple = "x86_64-pc-linux-gnu"

@.str.10 = private unnamed_addr constant [2 x i8] c"r\00", align 1

; Function Attrs: nounwind uwtable
define i32 @countlines(ptr noundef %0) #0 {
  %2 = alloca i32, align 4
  %3 = alloca ptr, align 8
  %4 = alloca ptr, align 8
  %5 = alloca [1024 x i8], align 16
  %6 = alloca i32, align 4
  store ptr %0, ptr %3, align 8
  store i32 0, ptr %6, align 4
  %7 = load ptr, ptr %3, align 8
  %8 = call noalias ptr @fopen(ptr noundef %7, ptr noundef @.str.10)
  store ptr %8, ptr %4, align 8
  %9 = icmp eq ptr %8, null
  br i1 %9, label %10, label %11

10:                                               ; preds = %1
  store i32 0, ptr %2, align 4
  br label %30

11:                                               ; preds = %1
  br label %12

12:                                               ; preds = %23, %22, %11
  %13 = getelementptr inbounds [1024 x i8], ptr %5, i64 0, i64 0
  %14 = load ptr, ptr %4, align 8
  %15 = call ptr @fgets(ptr noundef %13, i32 noundef 1024, ptr noundef %14)
  %16 = icmp ne ptr %15, null
  br i1 %16, label %17, label %26

17:                                               ; preds = %12
  %18 = getelementptr inbounds [1024 x i8], ptr %5, i64 0, i64 0
  %19 = load i8, ptr %18, align 16
  %20 = sext i8 %19 to i32
  %21 = icmp eq i32 %20, 35
  br i1 %21, label %22, label %23

22:                                               ; preds = %17
  br label %12

23:                                               ; preds = %17
  %24 = load i32, ptr %6, align 4
  %25 = add i32 %24, 1
  store i32 %25, ptr %6, align 4
  br label %12

26:                                               ; preds = %12
  %27 = load ptr, ptr %4, align 8
  %28 = call i32 @fclose(ptr noundef %27)
  %29 = load i32, ptr %6, align 4
  store i32 %29, ptr %2, align 4
  br label %30

30:                                               ; preds = %26, %10
  %31 = load i32, ptr %2, align 4
  ret i32 %31
}