; Function Attrs: nofree nounwind uwtable
define i32 @countlines(ptr nocapture noundef readonly %0) local_unnamed_addr #16 {
  %2 = alloca [1024 x i8], align 16
  %3 = tail call noalias ptr @fopen(ptr noundef %0, ptr noundef nonnull @.str.10)
  %4 = icmp eq ptr %3, null
  br i1 %4, label %11, label %.preheader

.preheader:                                       ; preds = %1
  %5 = call ptr @fgets(ptr noundef nonnull %2, i32 noundef 1024, ptr noundef nonnull %3)
  %.not6 = icmp eq ptr %5, null
  br i1 %.not6, label %._crit_edge, label %.lr.ph

.lr.ph:                                           ; preds = %.preheader, %.lr.ph
  %.07 = phi i32 [ %spec.select, %.lr.ph ], [ 0, %.preheader ]
  %6 = load i8, ptr %2, align 16
  %7 = icmp ne i8 %6, 35
  %8 = zext i1 %7 to i32
  %spec.select = add i32 %.07, %8
  %9 = call ptr @fgets(ptr noundef nonnull %2, i32 noundef 1024, ptr noundef nonnull %3)
  %.not = icmp eq ptr %9, null
  br i1 %.not, label %._crit_edge, label %.lr.ph

._crit_edge:                                      ; preds = %.lr.ph, %.preheader
  %.0.lcssa = phi i32 [ 0, %.preheader ], [ %spec.select, %.lr.ph ]
  %10 = call i32 @fclose(ptr noundef nonnull %3)
  br label %11

11:                                               ; preds = %1, %._crit_edge
  %.05 = phi i32 [ %.0.lcssa, %._crit_edge ], [ 0, %1 ]
  ret i32 %.05
}